; Function Attrs: nounwind uwtable
define noundef i32 @cli_bcapi_debug_print_str(ptr nocapture noundef readonly %0, ptr noundef %1, i32 noundef %2) local_unnamed_addr #1 {
  %4 = getelementptr inbounds i8, ptr %0, i64 1312
  %5 = load ptr, ptr %4, align 8
  %6 = tail call i64 @strlen(ptr noundef nonnull dereferenceable(1) %1) #30
  %7 = trunc i64 %6 to i32
  tail call void @cli_event_fastdata(ptr noundef %5, i32 noundef 5, ptr noundef %1, i32 noundef %7) #29
  tail call void (ptr, ...) @cli_dbgmsg(ptr noundef nonnull @.str.9, ptr noundef %1) #29
  ret i32 0
}